
RoboTec.elf:     file format elf32-avr

Sections:
Idx Name          Size      VMA       LMA       File off  Algn
  0 .data         0000003c  00800100  0000092c  000009c0  2**0
                  CONTENTS, ALLOC, LOAD, DATA
  1 .text         0000092c  00000000  00000000  00000094  2**1
                  CONTENTS, ALLOC, LOAD, READONLY, CODE
  2 .bss          0000000f  0080013c  0080013c  000009fc  2**0
                  ALLOC
  3 .comment      00000030  00000000  00000000  000009fc  2**0
                  CONTENTS, READONLY
  4 .debug_aranges 00000130  00000000  00000000  00000a2c  2**0
                  CONTENTS, READONLY, DEBUGGING
  5 .debug_info   00000bf3  00000000  00000000  00000b5c  2**0
                  CONTENTS, READONLY, DEBUGGING
  6 .debug_abbrev 000005a7  00000000  00000000  0000174f  2**0
                  CONTENTS, READONLY, DEBUGGING
  7 .debug_line   000006ab  00000000  00000000  00001cf6  2**0
                  CONTENTS, READONLY, DEBUGGING
  8 .debug_frame  00000238  00000000  00000000  000023a4  2**2
                  CONTENTS, READONLY, DEBUGGING
  9 .debug_str    0000036b  00000000  00000000  000025dc  2**0
                  CONTENTS, READONLY, DEBUGGING
 10 .debug_loc    00000a62  00000000  00000000  00002947  2**0
                  CONTENTS, READONLY, DEBUGGING
 11 .debug_ranges 000000d0  00000000  00000000  000033a9  2**0
                  CONTENTS, READONLY, DEBUGGING

Disassembly of section .text:

00000000 <__vectors>:
   0:	0c 94 56 01 	jmp	0x2ac	; 0x2ac <__ctors_end>
   4:	0c 94 73 01 	jmp	0x2e6	; 0x2e6 <__bad_interrupt>
   8:	0c 94 73 01 	jmp	0x2e6	; 0x2e6 <__bad_interrupt>
   c:	0c 94 73 01 	jmp	0x2e6	; 0x2e6 <__bad_interrupt>
  10:	0c 94 73 01 	jmp	0x2e6	; 0x2e6 <__bad_interrupt>
  14:	0c 94 73 01 	jmp	0x2e6	; 0x2e6 <__bad_interrupt>
  18:	0c 94 73 01 	jmp	0x2e6	; 0x2e6 <__bad_interrupt>
  1c:	0c 94 73 01 	jmp	0x2e6	; 0x2e6 <__bad_interrupt>
  20:	0c 94 73 01 	jmp	0x2e6	; 0x2e6 <__bad_interrupt>
  24:	0c 94 73 01 	jmp	0x2e6	; 0x2e6 <__bad_interrupt>
  28:	0c 94 73 01 	jmp	0x2e6	; 0x2e6 <__bad_interrupt>
  2c:	0c 94 73 01 	jmp	0x2e6	; 0x2e6 <__bad_interrupt>
  30:	0c 94 73 01 	jmp	0x2e6	; 0x2e6 <__bad_interrupt>
  34:	0c 94 73 01 	jmp	0x2e6	; 0x2e6 <__bad_interrupt>
  38:	0c 94 73 01 	jmp	0x2e6	; 0x2e6 <__bad_interrupt>
  3c:	0c 94 73 01 	jmp	0x2e6	; 0x2e6 <__bad_interrupt>
  40:	0c 94 73 01 	jmp	0x2e6	; 0x2e6 <__bad_interrupt>
  44:	0c 94 73 01 	jmp	0x2e6	; 0x2e6 <__bad_interrupt>
  48:	0c 94 73 01 	jmp	0x2e6	; 0x2e6 <__bad_interrupt>
  4c:	0c 94 73 01 	jmp	0x2e6	; 0x2e6 <__bad_interrupt>
  50:	0c 94 73 01 	jmp	0x2e6	; 0x2e6 <__bad_interrupt>
  54:	0c 94 73 01 	jmp	0x2e6	; 0x2e6 <__bad_interrupt>
  58:	0c 94 73 01 	jmp	0x2e6	; 0x2e6 <__bad_interrupt>
  5c:	0c 94 73 01 	jmp	0x2e6	; 0x2e6 <__bad_interrupt>
  60:	0c 94 73 01 	jmp	0x2e6	; 0x2e6 <__bad_interrupt>
  64:	0c 94 73 01 	jmp	0x2e6	; 0x2e6 <__bad_interrupt>
  68:	0c 94 73 01 	jmp	0x2e6	; 0x2e6 <__bad_interrupt>
  6c:	0c 94 73 01 	jmp	0x2e6	; 0x2e6 <__bad_interrupt>
  70:	0c 94 73 01 	jmp	0x2e6	; 0x2e6 <__bad_interrupt>
  74:	0c 94 36 04 	jmp	0x86c	; 0x86c <__vector_29>
  78:	0c 94 73 01 	jmp	0x2e6	; 0x2e6 <__bad_interrupt>
  7c:	0c 94 73 01 	jmp	0x2e6	; 0x2e6 <__bad_interrupt>
  80:	0c 94 73 01 	jmp	0x2e6	; 0x2e6 <__bad_interrupt>
  84:	0c 94 73 01 	jmp	0x2e6	; 0x2e6 <__bad_interrupt>
  88:	0c 94 73 01 	jmp	0x2e6	; 0x2e6 <__bad_interrupt>
  8c:	0c 94 73 01 	jmp	0x2e6	; 0x2e6 <__bad_interrupt>
  90:	0c 94 73 01 	jmp	0x2e6	; 0x2e6 <__bad_interrupt>
  94:	0c 94 73 01 	jmp	0x2e6	; 0x2e6 <__bad_interrupt>
  98:	0c 94 73 01 	jmp	0x2e6	; 0x2e6 <__bad_interrupt>
  9c:	0c 94 73 01 	jmp	0x2e6	; 0x2e6 <__bad_interrupt>
  a0:	0c 94 73 01 	jmp	0x2e6	; 0x2e6 <__bad_interrupt>
  a4:	0c 94 73 01 	jmp	0x2e6	; 0x2e6 <__bad_interrupt>
  a8:	0c 94 73 01 	jmp	0x2e6	; 0x2e6 <__bad_interrupt>
  ac:	f5 01       	movw	r30, r10
  ae:	72 03       	mulsu	r23, r18
  b0:	35 04       	cpc	r3, r5
  b2:	18 03       	fmul	r17, r16
  b4:	35 04       	cpc	r3, r5
  b6:	35 04       	cpc	r3, r5
  b8:	eb 02       	muls	r30, r27
  ba:	b3 03       	fmuls	r19, r19
  bc:	35 04       	cpc	r3, r5
  be:	35 04       	cpc	r3, r5
  c0:	35 04       	cpc	r3, r5
  c2:	35 04       	cpc	r3, r5
  c4:	be 02       	muls	r27, r30
  c6:	35 04       	cpc	r3, r5
  c8:	af 03       	fmulsu	r18, r23
  ca:	d0 03       	fmuls	r21, r16
  cc:	35 04       	cpc	r3, r5
  ce:	35 04       	cpc	r3, r5
  d0:	35 04       	cpc	r3, r5
  d2:	35 04       	cpc	r3, r5
  d4:	35 04       	cpc	r3, r5
  d6:	35 04       	cpc	r3, r5
  d8:	35 04       	cpc	r3, r5
  da:	35 04       	cpc	r3, r5
  dc:	0c 02       	muls	r16, r28
  de:	c1 03       	fmuls	r20, r17
  e0:	35 04       	cpc	r3, r5
  e2:	ea 03       	fmulsu	r22, r18
  e4:	ab 03       	fmulsu	r18, r19
  e6:	35 04       	cpc	r3, r5
  e8:	35 04       	cpc	r3, r5
  ea:	f9 03       	fmulsu	r23, r17
  ec:	35 04       	cpc	r3, r5
  ee:	35 04       	cpc	r3, r5
  f0:	35 04       	cpc	r3, r5
  f2:	35 04       	cpc	r3, r5
  f4:	35 04       	cpc	r3, r5
  f6:	35 04       	cpc	r3, r5
  f8:	35 04       	cpc	r3, r5
  fa:	35 04       	cpc	r3, r5
  fc:	35 04       	cpc	r3, r5
  fe:	35 04       	cpc	r3, r5
 100:	35 04       	cpc	r3, r5
 102:	35 04       	cpc	r3, r5
 104:	35 04       	cpc	r3, r5
 106:	35 04       	cpc	r3, r5
 108:	35 04       	cpc	r3, r5
 10a:	35 04       	cpc	r3, r5
 10c:	37 02       	muls	r19, r23
 10e:	35 04       	cpc	r3, r5
 110:	35 04       	cpc	r3, r5
 112:	e3 03       	fmuls	r22, r19
 114:	35 04       	cpc	r3, r5
 116:	35 04       	cpc	r3, r5
 118:	35 04       	cpc	r3, r5
 11a:	35 04       	cpc	r3, r5
 11c:	a7 03       	fmuls	r18, r23
 11e:	35 04       	cpc	r3, r5
 120:	35 04       	cpc	r3, r5
 122:	08 04       	cpc	r0, r8
 124:	35 04       	cpc	r3, r5
 126:	35 04       	cpc	r3, r5
 128:	35 04       	cpc	r3, r5
 12a:	17 04       	cpc	r1, r7
 12c:	35 04       	cpc	r3, r5
 12e:	35 04       	cpc	r3, r5
 130:	35 04       	cpc	r3, r5
 132:	35 04       	cpc	r3, r5
 134:	35 04       	cpc	r3, r5
 136:	35 04       	cpc	r3, r5
 138:	35 04       	cpc	r3, r5
 13a:	35 04       	cpc	r3, r5
 13c:	35 04       	cpc	r3, r5
 13e:	35 04       	cpc	r3, r5
 140:	35 04       	cpc	r3, r5
 142:	35 04       	cpc	r3, r5
 144:	35 04       	cpc	r3, r5
 146:	35 04       	cpc	r3, r5
 148:	35 04       	cpc	r3, r5
 14a:	35 04       	cpc	r3, r5
 14c:	35 04       	cpc	r3, r5
 14e:	35 04       	cpc	r3, r5
 150:	35 04       	cpc	r3, r5
 152:	35 04       	cpc	r3, r5
 154:	35 04       	cpc	r3, r5
 156:	35 04       	cpc	r3, r5
 158:	35 04       	cpc	r3, r5
 15a:	35 04       	cpc	r3, r5
 15c:	35 04       	cpc	r3, r5
 15e:	35 04       	cpc	r3, r5
 160:	35 04       	cpc	r3, r5
 162:	35 04       	cpc	r3, r5
 164:	35 04       	cpc	r3, r5
 166:	35 04       	cpc	r3, r5
 168:	35 04       	cpc	r3, r5
 16a:	35 04       	cpc	r3, r5
 16c:	64 02       	muls	r22, r20
 16e:	35 04       	cpc	r3, r5
 170:	35 04       	cpc	r3, r5
 172:	35 04       	cpc	r3, r5
 174:	35 04       	cpc	r3, r5
 176:	35 04       	cpc	r3, r5
 178:	35 04       	cpc	r3, r5
 17a:	35 04       	cpc	r3, r5
 17c:	35 04       	cpc	r3, r5
 17e:	35 04       	cpc	r3, r5
 180:	35 04       	cpc	r3, r5
 182:	35 04       	cpc	r3, r5
 184:	35 04       	cpc	r3, r5
 186:	35 04       	cpc	r3, r5
 188:	35 04       	cpc	r3, r5
 18a:	35 04       	cpc	r3, r5
 18c:	a3 03       	fmuls	r18, r19
 18e:	35 04       	cpc	r3, r5
 190:	35 04       	cpc	r3, r5
 192:	35 04       	cpc	r3, r5
 194:	35 04       	cpc	r3, r5
 196:	35 04       	cpc	r3, r5
 198:	35 04       	cpc	r3, r5
 19a:	35 04       	cpc	r3, r5
 19c:	35 04       	cpc	r3, r5
 19e:	35 04       	cpc	r3, r5
 1a0:	35 04       	cpc	r3, r5
 1a2:	35 04       	cpc	r3, r5
 1a4:	35 04       	cpc	r3, r5
 1a6:	35 04       	cpc	r3, r5
 1a8:	35 04       	cpc	r3, r5
 1aa:	27 04       	cpc	r2, r7
 1ac:	45 03       	mulsu	r20, r21
 1ae:	35 04       	cpc	r3, r5
 1b0:	35 04       	cpc	r3, r5
 1b2:	35 04       	cpc	r3, r5
 1b4:	35 04       	cpc	r3, r5
 1b6:	35 04       	cpc	r3, r5
 1b8:	35 04       	cpc	r3, r5
 1ba:	35 04       	cpc	r3, r5
 1bc:	35 04       	cpc	r3, r5
 1be:	35 04       	cpc	r3, r5
 1c0:	35 04       	cpc	r3, r5
 1c2:	35 04       	cpc	r3, r5
 1c4:	35 04       	cpc	r3, r5
 1c6:	35 04       	cpc	r3, r5
 1c8:	35 04       	cpc	r3, r5
 1ca:	35 04       	cpc	r3, r5
 1cc:	35 04       	cpc	r3, r5
 1ce:	35 04       	cpc	r3, r5
 1d0:	35 04       	cpc	r3, r5
 1d2:	35 04       	cpc	r3, r5
 1d4:	35 04       	cpc	r3, r5
 1d6:	35 04       	cpc	r3, r5
 1d8:	35 04       	cpc	r3, r5
 1da:	35 04       	cpc	r3, r5
 1dc:	ba 03       	fmulsu	r19, r18
 1de:	35 04       	cpc	r3, r5
 1e0:	35 04       	cpc	r3, r5
 1e2:	35 04       	cpc	r3, r5
 1e4:	35 04       	cpc	r3, r5
 1e6:	35 04       	cpc	r3, r5
 1e8:	35 04       	cpc	r3, r5
 1ea:	35 04       	cpc	r3, r5
 1ec:	35 04       	cpc	r3, r5
 1ee:	35 04       	cpc	r3, r5
 1f0:	35 04       	cpc	r3, r5
 1f2:	35 04       	cpc	r3, r5
 1f4:	35 04       	cpc	r3, r5
 1f6:	35 04       	cpc	r3, r5
 1f8:	35 04       	cpc	r3, r5
 1fa:	35 04       	cpc	r3, r5
 1fc:	35 04       	cpc	r3, r5
 1fe:	35 04       	cpc	r3, r5
 200:	35 04       	cpc	r3, r5
 202:	35 04       	cpc	r3, r5
 204:	35 04       	cpc	r3, r5
 206:	35 04       	cpc	r3, r5
 208:	35 04       	cpc	r3, r5
 20a:	35 04       	cpc	r3, r5
 20c:	35 04       	cpc	r3, r5
 20e:	35 04       	cpc	r3, r5
 210:	35 04       	cpc	r3, r5
 212:	35 04       	cpc	r3, r5
 214:	35 04       	cpc	r3, r5
 216:	35 04       	cpc	r3, r5
 218:	35 04       	cpc	r3, r5
 21a:	35 04       	cpc	r3, r5
 21c:	35 04       	cpc	r3, r5
 21e:	35 04       	cpc	r3, r5
 220:	35 04       	cpc	r3, r5
 222:	35 04       	cpc	r3, r5
 224:	35 04       	cpc	r3, r5
 226:	35 04       	cpc	r3, r5
 228:	35 04       	cpc	r3, r5
 22a:	35 04       	cpc	r3, r5
 22c:	91 02       	muls	r25, r17
 22e:	35 04       	cpc	r3, r5
 230:	35 04       	cpc	r3, r5
 232:	35 04       	cpc	r3, r5
 234:	35 04       	cpc	r3, r5
 236:	35 04       	cpc	r3, r5
 238:	35 04       	cpc	r3, r5
 23a:	35 04       	cpc	r3, r5
 23c:	35 04       	cpc	r3, r5
 23e:	35 04       	cpc	r3, r5
 240:	35 04       	cpc	r3, r5
 242:	35 04       	cpc	r3, r5
 244:	d8 03       	fmulsu	r21, r16
 246:	35 04       	cpc	r3, r5
 248:	35 04       	cpc	r3, r5
 24a:	35 04       	cpc	r3, r5
 24c:	35 04       	cpc	r3, r5
 24e:	35 04       	cpc	r3, r5
 250:	35 04       	cpc	r3, r5
 252:	35 04       	cpc	r3, r5
 254:	35 04       	cpc	r3, r5
 256:	35 04       	cpc	r3, r5
 258:	35 04       	cpc	r3, r5
 25a:	35 04       	cpc	r3, r5
 25c:	dc 03       	fmulsu	r21, r20
 25e:	35 04       	cpc	r3, r5
 260:	35 04       	cpc	r3, r5
 262:	35 04       	cpc	r3, r5
 264:	01 04       	cpc	r0, r1
 266:	35 04       	cpc	r3, r5
 268:	35 04       	cpc	r3, r5
 26a:	35 04       	cpc	r3, r5
 26c:	9f 03       	fmulsu	r17, r23
 26e:	35 04       	cpc	r3, r5
 270:	35 04       	cpc	r3, r5
 272:	35 04       	cpc	r3, r5
 274:	35 04       	cpc	r3, r5
 276:	35 04       	cpc	r3, r5
 278:	35 04       	cpc	r3, r5
 27a:	35 04       	cpc	r3, r5
 27c:	35 04       	cpc	r3, r5
 27e:	35 04       	cpc	r3, r5
 280:	35 04       	cpc	r3, r5
 282:	35 04       	cpc	r3, r5
 284:	35 04       	cpc	r3, r5
 286:	35 04       	cpc	r3, r5
 288:	35 04       	cpc	r3, r5
 28a:	35 04       	cpc	r3, r5
 28c:	c8 03       	fmulsu	r20, r16
 28e:	35 04       	cpc	r3, r5
 290:	35 04       	cpc	r3, r5
 292:	35 04       	cpc	r3, r5
 294:	35 04       	cpc	r3, r5
 296:	35 04       	cpc	r3, r5
 298:	35 04       	cpc	r3, r5
 29a:	35 04       	cpc	r3, r5
 29c:	f1 03       	fmuls	r23, r17
 29e:	35 04       	cpc	r3, r5
 2a0:	35 04       	cpc	r3, r5
 2a2:	35 04       	cpc	r3, r5
 2a4:	0f 04       	cpc	r0, r15
 2a6:	35 04       	cpc	r3, r5
 2a8:	1f 04       	cpc	r1, r15
 2aa:	2f 04       	cpc	r2, r15

000002ac <__ctors_end>:
 2ac:	11 24       	eor	r1, r1
 2ae:	1f be       	out	0x3f, r1	; 63
 2b0:	cf ef       	ldi	r28, 0xFF	; 255
 2b2:	da e0       	ldi	r29, 0x0A	; 10
 2b4:	de bf       	out	0x3e, r29	; 62
 2b6:	cd bf       	out	0x3d, r28	; 61

000002b8 <__do_copy_data>:
 2b8:	11 e0       	ldi	r17, 0x01	; 1
 2ba:	a0 e0       	ldi	r26, 0x00	; 0
 2bc:	b1 e0       	ldi	r27, 0x01	; 1
 2be:	ec e2       	ldi	r30, 0x2C	; 44
 2c0:	f9 e0       	ldi	r31, 0x09	; 9
 2c2:	02 c0       	rjmp	.+4      	; 0x2c8 <__do_copy_data+0x10>
 2c4:	05 90       	lpm	r0, Z+
 2c6:	0d 92       	st	X+, r0
 2c8:	ac 33       	cpi	r26, 0x3C	; 60
 2ca:	b1 07       	cpc	r27, r17
 2cc:	d9 f7       	brne	.-10     	; 0x2c4 <__do_copy_data+0xc>

000002ce <__do_clear_bss>:
 2ce:	21 e0       	ldi	r18, 0x01	; 1
 2d0:	ac e3       	ldi	r26, 0x3C	; 60
 2d2:	b1 e0       	ldi	r27, 0x01	; 1
 2d4:	01 c0       	rjmp	.+2      	; 0x2d8 <.do_clear_bss_start>

000002d6 <.do_clear_bss_loop>:
 2d6:	1d 92       	st	X+, r1

000002d8 <.do_clear_bss_start>:
 2d8:	ab 34       	cpi	r26, 0x4B	; 75
 2da:	b2 07       	cpc	r27, r18
 2dc:	e1 f7       	brne	.-8      	; 0x2d6 <.do_clear_bss_loop>
 2de:	0e 94 4c 04 	call	0x898	; 0x898 <main>
 2e2:	0c 94 94 04 	jmp	0x928	; 0x928 <_exit>

000002e6 <__bad_interrupt>:
 2e6:	0c 94 00 00 	jmp	0	; 0x0 <__vectors>

000002ea <pwm_init>:
#include "/RoboTec/RoboTec/RoboTec/Driver/Headers/USART.h"

void pwm_init()
{
	//Set the direction pins as output for the motor driver.
	DDRB |= (1 << DDB4) | (1 << DDB7);
 2ea:	84 b1       	in	r24, 0x04	; 4
 2ec:	80 69       	ori	r24, 0x90	; 144
 2ee:	84 b9       	out	0x04, r24	; 4
	DDRC |= (1 << DDC7);
 2f0:	3f 9a       	sbi	0x07, 7	; 7
	DDRF |= (1 << DDF7);
 2f2:	87 9a       	sbi	0x10, 7	; 16
	DDRB |= (1 << DDB5)|(1 << DDB6);//PWM pins
 2f4:	84 b1       	in	r24, 0x04	; 4
 2f6:	80 66       	ori	r24, 0x60	; 96
 2f8:	84 b9       	out	0x04, r24	; 4
	
	TCCR1A |= (1 << COM1A1) | (1 << COM1B1);
 2fa:	e0 e8       	ldi	r30, 0x80	; 128
 2fc:	f0 e0       	ldi	r31, 0x00	; 0
 2fe:	80 81       	ld	r24, Z
 300:	80 6a       	ori	r24, 0xA0	; 160
 302:	80 83       	st	Z, r24
	TCCR1A |= (1 << WGM11);
 304:	80 81       	ld	r24, Z
 306:	82 60       	ori	r24, 0x02	; 2
 308:	80 83       	st	Z, r24
	TCCR1B |= (1 << WGM13) | (1 <<WGM12);
 30a:	e1 e8       	ldi	r30, 0x81	; 129
 30c:	f0 e0       	ldi	r31, 0x00	; 0
 30e:	80 81       	ld	r24, Z
 310:	88 61       	ori	r24, 0x18	; 24
 312:	80 83       	st	Z, r24
	TCCR1B |= (1 << CS10);
 314:	80 81       	ld	r24, Z
 316:	81 60       	ori	r24, 0x01	; 1
 318:	80 83       	st	Z, r24
	ICR1=0xFF;
 31a:	8f ef       	ldi	r24, 0xFF	; 255
 31c:	90 e0       	ldi	r25, 0x00	; 0
 31e:	90 93 87 00 	sts	0x0087, r25
 322:	80 93 86 00 	sts	0x0086, r24
	uart_print("PWM initialization finished!\r\n");
 326:	84 e0       	ldi	r24, 0x04	; 4
 328:	91 e0       	ldi	r25, 0x01	; 1
 32a:	0e 94 a0 01 	call	0x340	; 0x340 <uart_print>
 32e:	08 95       	ret

00000330 <uart_transmit>:

// transmit a char to uart
void uart_transmit( unsigned char data )
{
	// wait for empty transmit buffer
	while ( ! ( UCSR1A & ( 1 << UDRE1 ) ) )
 330:	e8 ec       	ldi	r30, 0xC8	; 200
 332:	f0 e0       	ldi	r31, 0x00	; 0
 334:	90 81       	ld	r25, Z
 336:	95 ff       	sbrs	r25, 5
 338:	fd cf       	rjmp	.-6      	; 0x334 <uart_transmit+0x4>
	;
	
	// put data into buffer, sends data
	UDR1 = data;
 33a:	80 93 ce 00 	sts	0x00CE, r24
 33e:	08 95       	ret

00000340 <uart_print>:
}
// write a string to the uart
void uart_print( char data[] )
{
 340:	0f 93       	push	r16
 342:	1f 93       	push	r17
 344:	cf 93       	push	r28
 346:	df 93       	push	r29
	//cli();
	uint8_t count = 0;
	uint8_t length = strlen(data);
 348:	fc 01       	movw	r30, r24
 34a:	01 90       	ld	r0, Z+
 34c:	00 20       	and	r0, r0
 34e:	e9 f7       	brne	.-6      	; 0x34a <uart_print+0xa>
 350:	31 97       	sbiw	r30, 0x01	; 1
 352:	1e 2f       	mov	r17, r30
 354:	18 1b       	sub	r17, r24
	
	for ( count = 0; count < length; count++ )
 356:	51 f0       	breq	.+20     	; 0x36c <uart_print+0x2c>
 358:	08 2f       	mov	r16, r24
 35a:	c0 2f       	mov	r28, r16
 35c:	d9 2f       	mov	r29, r25
	uart_transmit(data[count]);
 35e:	89 91       	ld	r24, Y+
 360:	0e 94 98 01 	call	0x330	; 0x330 <uart_transmit>
 364:	8c 2f       	mov	r24, r28
 366:	80 1b       	sub	r24, r16
{
	//cli();
	uint8_t count = 0;
	uint8_t length = strlen(data);
	
	for ( count = 0; count < length; count++ )
 368:	81 17       	cp	r24, r17
 36a:	c8 f3       	brcs	.-14     	; 0x35e <uart_print+0x1e>
	uart_transmit(data[count]);
	
	uart_transmit('\r');
 36c:	8d e0       	ldi	r24, 0x0D	; 13
 36e:	0e 94 98 01 	call	0x330	; 0x330 <uart_transmit>
	uart_transmit('\n');
 372:	8a e0       	ldi	r24, 0x0A	; 10
 374:	0e 94 98 01 	call	0x330	; 0x330 <uart_transmit>
	//sei();
}
 378:	df 91       	pop	r29
 37a:	cf 91       	pop	r28
 37c:	1f 91       	pop	r17
 37e:	0f 91       	pop	r16
 380:	08 95       	ret

00000382 <uart_init>:
void uart_init(void)
{
	// set baud rate
	unsigned int baud = 16u;//BAUD_PRESCALE;
	
	UBRR1H = (unsigned char) (baud >> 8 );
 382:	10 92 cd 00 	sts	0x00CD, r1
	UBRR1L = (unsigned char)baud;
 386:	80 e1       	ldi	r24, 0x10	; 16
 388:	80 93 cc 00 	sts	0x00CC, r24
	UCSR1A |= (1 << U2X1);
 38c:	e8 ec       	ldi	r30, 0xC8	; 200
 38e:	f0 e0       	ldi	r31, 0x00	; 0
 390:	80 81       	ld	r24, Z
 392:	82 60       	ori	r24, 0x02	; 2
 394:	80 83       	st	Z, r24
	
	// enable received and transmitter
	UCSR1B = ( 1 << RXEN1 ) | ( 1 << TXEN1 );
 396:	88 e1       	ldi	r24, 0x18	; 24
 398:	80 93 c9 00 	sts	0x00C9, r24
	
	// set frame format ( 8data, 1stop )
	UCSR1C = (1 << UCSZ10) | (1 << UCSZ11);
 39c:	86 e0       	ldi	r24, 0x06	; 6
 39e:	80 93 ca 00 	sts	0x00CA, r24
 3a2:	08 95       	ret

000003a4 <CheckSensor>:

uint8_t CheckSensor()
{
	uint8_t state;
	
	state = (((0x0F & PINB)) | ((0x70 & PINF)) | (0x80 & PIND));
 3a4:	83 b1       	in	r24, 0x03	; 3
 3a6:	2f b1       	in	r18, 0x0f	; 15
 3a8:	99 b1       	in	r25, 0x09	; 9
 3aa:	20 77       	andi	r18, 0x70	; 112
 3ac:	8f 70       	andi	r24, 0x0F	; 15
 3ae:	82 2b       	or	r24, r18
 3b0:	90 78       	andi	r25, 0x80	; 128
	
 	return state;
}
 3b2:	89 2b       	or	r24, r25
 3b4:	08 95       	ret

000003b6 <ProcessLineState>:

void ProcessLineState(uint8_t mask)
{
	left_speed = 0;
 3b6:	10 92 44 01 	sts	0x0144, r1
	right_speed = 0;
 3ba:	10 92 43 01 	sts	0x0143, r1
	radius = 0; 
 3be:	10 92 00 01 	sts	0x0100, r1
 3c2:	10 92 01 01 	sts	0x0101, r1
 3c6:	10 92 02 01 	sts	0x0102, r1
 3ca:	10 92 03 01 	sts	0x0103, r1
	omega = 0;
 3ce:	10 92 3d 01 	sts	0x013D, r1
 3d2:	10 92 3e 01 	sts	0x013E, r1
 3d6:	10 92 3f 01 	sts	0x013F, r1
 3da:	10 92 40 01 	sts	0x0140, r1
	
	switch(mask)
 3de:	90 e0       	ldi	r25, 0x00	; 0
 3e0:	fc 01       	movw	r30, r24
 3e2:	ea 5a       	subi	r30, 0xAA	; 170
 3e4:	ff 4f       	sbci	r31, 0xFF	; 255
 3e6:	0c 94 8e 04 	jmp	0x91c	; 0x91c <__tablejump2__>
	{
		case 0b00000000:
		{
			//forward(speed(0));
			//Do nothing
			switch(angleFlag)
 3ea:	80 91 42 01 	lds	r24, 0x0142
 3ee:	81 30       	cpi	r24, 0x01	; 1
 3f0:	19 f0       	breq	.+6      	; 0x3f8 <ProcessLineState+0x42>
 3f2:	82 30       	cpi	r24, 0x02	; 2
 3f4:	41 f0       	breq	.+16     	; 0x406 <ProcessLineState+0x50>
 3f6:	0d c0       	rjmp	.+26     	; 0x412 <ProcessLineState+0x5c>
			{
				case ACUTE_ANGLE_LEFT:
				{
					steer(SPEED,0);
 3f8:	60 e0       	ldi	r22, 0x00	; 0
 3fa:	84 e6       	ldi	r24, 0x64	; 100
 3fc:	0e 94 7f 04 	call	0x8fe	; 0x8fe <steer>
					angleFlag = PREVIOUS_COMAND;
 400:	10 92 42 01 	sts	0x0142, r1
				}
				break;
 404:	06 c0       	rjmp	.+12     	; 0x412 <ProcessLineState+0x5c>
				case ACUTE_ANGLE_RIGHT:
				{
					steer(SPEED,0);
 406:	60 e0       	ldi	r22, 0x00	; 0
 408:	84 e6       	ldi	r24, 0x64	; 100
 40a:	0e 94 7f 04 	call	0x8fe	; 0x8fe <steer>
					angleFlag = PREVIOUS_COMAND;
 40e:	10 92 42 01 	sts	0x0142, r1
				default:
				{
					
				}
				}
			prevState = mask;
 412:	10 92 41 01 	sts	0x0141, r1
		}
		break;
 416:	08 95       	ret
		
		case 0b00011000:
		{
			//Go forward 
			//alfa = 0
			if(prevState != mask)
 418:	80 91 41 01 	lds	r24, 0x0141
 41c:	88 31       	cpi	r24, 0x18	; 24
 41e:	11 f0       	breq	.+4      	; 0x424 <ProcessLineState+0x6e>
			{
				c=0;
 420:	10 92 3c 01 	sts	0x013C, r1
			}
						
			if(count == 1500)
 424:	80 91 45 01 	lds	r24, 0x0145
 428:	90 91 46 01 	lds	r25, 0x0146
 42c:	8c 3d       	cpi	r24, 0xDC	; 220
 42e:	95 40       	sbci	r25, 0x05	; 5
 430:	51 f4       	brne	.+20     	; 0x446 <ProcessLineState+0x90>
			{
				c+=3;
 432:	80 91 3c 01 	lds	r24, 0x013C
 436:	8d 5f       	subi	r24, 0xFD	; 253
 438:	80 93 3c 01 	sts	0x013C, r24
				count=0;
 43c:	10 92 46 01 	sts	0x0146, r1
 440:	10 92 45 01 	sts	0x0145, r1
 444:	09 c0       	rjmp	.+18     	; 0x458 <ProcessLineState+0xa2>
			}
			else
			{
				count++;
 446:	80 91 45 01 	lds	r24, 0x0145
 44a:	90 91 46 01 	lds	r25, 0x0146
 44e:	01 96       	adiw	r24, 0x01	; 1
 450:	90 93 46 01 	sts	0x0146, r25
 454:	80 93 45 01 	sts	0x0145, r24
			}
						
			right_speed = SPEED + c;
 458:	80 91 3c 01 	lds	r24, 0x013C
 45c:	8c 59       	subi	r24, 0x9C	; 156
 45e:	80 93 43 01 	sts	0x0143, r24
			
			forward(right_speed);
 462:	0e 94 70 04 	call	0x8e0	; 0x8e0 <forward>

			prevState = mask;
 466:	88 e1       	ldi	r24, 0x18	; 24
 468:	80 93 41 01 	sts	0x0141, r24
		}
		break;
 46c:	08 95       	ret
		case 0b00110000:
		{
			//turn left
			//alfa = 4
			
			if(prevState != mask)
 46e:	80 91 41 01 	lds	r24, 0x0141
 472:	80 33       	cpi	r24, 0x30	; 48
 474:	19 f0       	breq	.+6      	; 0x47c <ProcessLineState+0xc6>
			{
				c=10;
 476:	8a e0       	ldi	r24, 0x0A	; 10
 478:	80 93 3c 01 	sts	0x013C, r24
			}
			
			if(count == 2000)
 47c:	80 91 45 01 	lds	r24, 0x0145
 480:	90 91 46 01 	lds	r25, 0x0146
 484:	80 3d       	cpi	r24, 0xD0	; 208
 486:	97 40       	sbci	r25, 0x07	; 7
 488:	51 f4       	brne	.+20     	; 0x49e <ProcessLineState+0xe8>
			{
				c+=3;
 48a:	80 91 3c 01 	lds	r24, 0x013C
 48e:	8d 5f       	subi	r24, 0xFD	; 253
 490:	80 93 3c 01 	sts	0x013C, r24
				count=0;
 494:	10 92 46 01 	sts	0x0146, r1
 498:	10 92 45 01 	sts	0x0145, r1
 49c:	09 c0       	rjmp	.+18     	; 0x4b0 <ProcessLineState+0xfa>
			}
			else
			{
				count++;
 49e:	80 91 45 01 	lds	r24, 0x0145
 4a2:	90 91 46 01 	lds	r25, 0x0146
 4a6:	01 96       	adiw	r24, 0x01	; 1
 4a8:	90 93 46 01 	sts	0x0146, r25
 4ac:	80 93 45 01 	sts	0x0145, r24
			}
			
			right_speed = SPEED + c;
 4b0:	60 91 3c 01 	lds	r22, 0x013C
 4b4:	6c 59       	subi	r22, 0x9C	; 156
 4b6:	60 93 43 01 	sts	0x0143, r22
			steer(SPEED, right_speed);
 4ba:	84 e6       	ldi	r24, 0x64	; 100
 4bc:	0e 94 7f 04 	call	0x8fe	; 0x8fe <steer>
			
			prevState = mask;
 4c0:	80 e3       	ldi	r24, 0x30	; 48
 4c2:	80 93 41 01 	sts	0x0141, r24
		}
		break;
 4c6:	08 95       	ret
		
		case 0b01100000:
		{
			//turn left
			//alfa = 8
			if(prevState != mask)
 4c8:	80 91 41 01 	lds	r24, 0x0141
 4cc:	80 36       	cpi	r24, 0x60	; 96
 4ce:	19 f0       	breq	.+6      	; 0x4d6 <ProcessLineState+0x120>
			{
				c=30;
 4d0:	8e e1       	ldi	r24, 0x1E	; 30
 4d2:	80 93 3c 01 	sts	0x013C, r24
			}
			
			if(count == 2500)
 4d6:	80 91 45 01 	lds	r24, 0x0145
 4da:	90 91 46 01 	lds	r25, 0x0146
 4de:	84 3c       	cpi	r24, 0xC4	; 196
 4e0:	99 40       	sbci	r25, 0x09	; 9
 4e2:	51 f4       	brne	.+20     	; 0x4f8 <ProcessLineState+0x142>
			{
				c+=10;
 4e4:	80 91 3c 01 	lds	r24, 0x013C
 4e8:	86 5f       	subi	r24, 0xF6	; 246
 4ea:	80 93 3c 01 	sts	0x013C, r24
				count=0;
 4ee:	10 92 46 01 	sts	0x0146, r1
 4f2:	10 92 45 01 	sts	0x0145, r1
 4f6:	09 c0       	rjmp	.+18     	; 0x50a <ProcessLineState+0x154>
			}
			else
			{
				count++;
 4f8:	80 91 45 01 	lds	r24, 0x0145
 4fc:	90 91 46 01 	lds	r25, 0x0146
 500:	01 96       	adiw	r24, 0x01	; 1
 502:	90 93 46 01 	sts	0x0146, r25
 506:	80 93 45 01 	sts	0x0145, r24
			}
			

			right_speed = SPEED + c;
 50a:	60 91 3c 01 	lds	r22, 0x013C
 50e:	6c 59       	subi	r22, 0x9C	; 156
 510:	60 93 43 01 	sts	0x0143, r22
			steer(SPEED, right_speed);
 514:	84 e6       	ldi	r24, 0x64	; 100
 516:	0e 94 7f 04 	call	0x8fe	; 0x8fe <steer>
			
			prevState = mask;
 51a:	80 e6       	ldi	r24, 0x60	; 96
 51c:	80 93 41 01 	sts	0x0141, r24
		}
		break;
 520:	08 95       	ret
		case 0b11000000:
		{
			//turn left
			//alfa = 12
			
			if(prevState != mask)
 522:	80 91 41 01 	lds	r24, 0x0141
 526:	80 3c       	cpi	r24, 0xC0	; 192
 528:	19 f0       	breq	.+6      	; 0x530 <ProcessLineState+0x17a>
			{
				c=45;
 52a:	8d e2       	ldi	r24, 0x2D	; 45
 52c:	80 93 3c 01 	sts	0x013C, r24
			}
			
			if(count == 2500)
 530:	80 91 45 01 	lds	r24, 0x0145
 534:	90 91 46 01 	lds	r25, 0x0146
 538:	84 3c       	cpi	r24, 0xC4	; 196
 53a:	99 40       	sbci	r25, 0x09	; 9
 53c:	51 f4       	brne	.+20     	; 0x552 <ProcessLineState+0x19c>
			{
				c+=20;
 53e:	80 91 3c 01 	lds	r24, 0x013C
 542:	8c 5e       	subi	r24, 0xEC	; 236
 544:	80 93 3c 01 	sts	0x013C, r24
				count=0;
 548:	10 92 46 01 	sts	0x0146, r1
 54c:	10 92 45 01 	sts	0x0145, r1
 550:	09 c0       	rjmp	.+18     	; 0x564 <ProcessLineState+0x1ae>
			}
			else
			{
				count++;
 552:	80 91 45 01 	lds	r24, 0x0145
 556:	90 91 46 01 	lds	r25, 0x0146
 55a:	01 96       	adiw	r24, 0x01	; 1
 55c:	90 93 46 01 	sts	0x0146, r25
 560:	80 93 45 01 	sts	0x0145, r24
			}
			
			
			right_speed = SPEED + c;
 564:	60 91 3c 01 	lds	r22, 0x013C
 568:	6c 59       	subi	r22, 0x9C	; 156
 56a:	60 93 43 01 	sts	0x0143, r22
			steer(SPEED-50, right_speed);
 56e:	82 e3       	ldi	r24, 0x32	; 50
 570:	0e 94 7f 04 	call	0x8fe	; 0x8fe <steer>
			
			prevState = mask;
 574:	80 ec       	ldi	r24, 0xC0	; 192
 576:	80 93 41 01 	sts	0x0141, r24
		}
		break;
 57a:	08 95       	ret
		case 0b00001100:
		{
			//turn right
			//alfa = 4
			
			if(prevState != mask)
 57c:	80 91 41 01 	lds	r24, 0x0141
 580:	8c 30       	cpi	r24, 0x0C	; 12
 582:	19 f0       	breq	.+6      	; 0x58a <ProcessLineState+0x1d4>
			{
				c=10;
 584:	8a e0       	ldi	r24, 0x0A	; 10
 586:	80 93 3c 01 	sts	0x013C, r24
			}
			
			if(count == 2000)
 58a:	80 91 45 01 	lds	r24, 0x0145
 58e:	90 91 46 01 	lds	r25, 0x0146
 592:	80 3d       	cpi	r24, 0xD0	; 208
 594:	97 40       	sbci	r25, 0x07	; 7
 596:	51 f4       	brne	.+20     	; 0x5ac <ProcessLineState+0x1f6>
			{
				c+=3;
 598:	80 91 3c 01 	lds	r24, 0x013C
 59c:	8d 5f       	subi	r24, 0xFD	; 253
 59e:	80 93 3c 01 	sts	0x013C, r24
				count=0;
 5a2:	10 92 46 01 	sts	0x0146, r1
 5a6:	10 92 45 01 	sts	0x0145, r1
 5aa:	09 c0       	rjmp	.+18     	; 0x5be <ProcessLineState+0x208>
			}
			else
			{
				count++;
 5ac:	80 91 45 01 	lds	r24, 0x0145
 5b0:	90 91 46 01 	lds	r25, 0x0146
 5b4:	01 96       	adiw	r24, 0x01	; 1
 5b6:	90 93 46 01 	sts	0x0146, r25
 5ba:	80 93 45 01 	sts	0x0145, r24
			}
			

			left_speed = SPEED + c;
 5be:	80 91 3c 01 	lds	r24, 0x013C
 5c2:	8c 59       	subi	r24, 0x9C	; 156
 5c4:	80 93 44 01 	sts	0x0144, r24
			
			steer(left_speed, SPEED);
 5c8:	64 e6       	ldi	r22, 0x64	; 100
 5ca:	0e 94 7f 04 	call	0x8fe	; 0x8fe <steer>
			
			prevState = mask;
 5ce:	8c e0       	ldi	r24, 0x0C	; 12
 5d0:	80 93 41 01 	sts	0x0141, r24
		}
		break;		
 5d4:	08 95       	ret
		case 0b00000110:
		{
			//turn right
			//alfa = 8
			
			if(prevState != mask)
 5d6:	80 91 41 01 	lds	r24, 0x0141
 5da:	86 30       	cpi	r24, 0x06	; 6
 5dc:	19 f0       	breq	.+6      	; 0x5e4 <ProcessLineState+0x22e>
			{
				c=30;
 5de:	8e e1       	ldi	r24, 0x1E	; 30
 5e0:	80 93 3c 01 	sts	0x013C, r24
			}
			
			if(count == 2500)
 5e4:	80 91 45 01 	lds	r24, 0x0145
 5e8:	90 91 46 01 	lds	r25, 0x0146
 5ec:	84 3c       	cpi	r24, 0xC4	; 196
 5ee:	99 40       	sbci	r25, 0x09	; 9
 5f0:	51 f4       	brne	.+20     	; 0x606 <ProcessLineState+0x250>
			{
				c+=10;
 5f2:	80 91 3c 01 	lds	r24, 0x013C
 5f6:	86 5f       	subi	r24, 0xF6	; 246
 5f8:	80 93 3c 01 	sts	0x013C, r24
				count=0;
 5fc:	10 92 46 01 	sts	0x0146, r1
 600:	10 92 45 01 	sts	0x0145, r1
 604:	09 c0       	rjmp	.+18     	; 0x618 <ProcessLineState+0x262>
			}
			else
			{
				count++;
 606:	80 91 45 01 	lds	r24, 0x0145
 60a:	90 91 46 01 	lds	r25, 0x0146
 60e:	01 96       	adiw	r24, 0x01	; 1
 610:	90 93 46 01 	sts	0x0146, r25
 614:	80 93 45 01 	sts	0x0145, r24
			}
			

			left_speed = SPEED + c;
 618:	80 91 3c 01 	lds	r24, 0x013C
 61c:	8c 59       	subi	r24, 0x9C	; 156
 61e:	80 93 44 01 	sts	0x0144, r24
			
			steer(left_speed, SPEED);
 622:	64 e6       	ldi	r22, 0x64	; 100
 624:	0e 94 7f 04 	call	0x8fe	; 0x8fe <steer>
			prevState = mask;
 628:	86 e0       	ldi	r24, 0x06	; 6
 62a:	80 93 41 01 	sts	0x0141, r24
		}
		break;
 62e:	08 95       	ret
		
		case 0b00000011:
		{
			//turn right
			//alfa = 12
			if(prevState != mask)
 630:	80 91 41 01 	lds	r24, 0x0141
 634:	83 30       	cpi	r24, 0x03	; 3
 636:	19 f0       	breq	.+6      	; 0x63e <ProcessLineState+0x288>
			{
				c=45;
 638:	8d e2       	ldi	r24, 0x2D	; 45
 63a:	80 93 3c 01 	sts	0x013C, r24
			}
			
			if(count == 2500)
 63e:	80 91 45 01 	lds	r24, 0x0145
 642:	90 91 46 01 	lds	r25, 0x0146
 646:	84 3c       	cpi	r24, 0xC4	; 196
 648:	99 40       	sbci	r25, 0x09	; 9
 64a:	51 f4       	brne	.+20     	; 0x660 <ProcessLineState+0x2aa>
			{
				c+=20;
 64c:	80 91 3c 01 	lds	r24, 0x013C
 650:	8c 5e       	subi	r24, 0xEC	; 236
 652:	80 93 3c 01 	sts	0x013C, r24
				count=0;
 656:	10 92 46 01 	sts	0x0146, r1
 65a:	10 92 45 01 	sts	0x0145, r1
 65e:	09 c0       	rjmp	.+18     	; 0x672 <ProcessLineState+0x2bc>
			}
			else
			{
				count++;
 660:	80 91 45 01 	lds	r24, 0x0145
 664:	90 91 46 01 	lds	r25, 0x0146
 668:	01 96       	adiw	r24, 0x01	; 1
 66a:	90 93 46 01 	sts	0x0146, r25
 66e:	80 93 45 01 	sts	0x0145, r24
			}
			

			left_speed = SPEED + c;
 672:	80 91 3c 01 	lds	r24, 0x013C
 676:	8c 59       	subi	r24, 0x9C	; 156
 678:	80 93 44 01 	sts	0x0144, r24
			
			steer(left_speed, SPEED-50);
 67c:	62 e3       	ldi	r22, 0x32	; 50
 67e:	0e 94 7f 04 	call	0x8fe	; 0x8fe <steer>
			prevState = mask;
 682:	83 e0       	ldi	r24, 0x03	; 3
 684:	80 93 41 01 	sts	0x0141, r24
				
			prevState = mask;
		}
		break;
 688:	08 95       	ret
		case 0b10000000:
		{
			//turn sharply to the left
			//alfa = 16
			if(prevState != mask)
 68a:	80 91 41 01 	lds	r24, 0x0141
 68e:	80 38       	cpi	r24, 0x80	; 128
 690:	19 f0       	breq	.+6      	; 0x698 <ProcessLineState+0x2e2>
			{
				c=75;
 692:	8b e4       	ldi	r24, 0x4B	; 75
 694:	80 93 3c 01 	sts	0x013C, r24
			}
			
			if(count == 2500)
 698:	80 91 45 01 	lds	r24, 0x0145
 69c:	90 91 46 01 	lds	r25, 0x0146
 6a0:	84 3c       	cpi	r24, 0xC4	; 196
 6a2:	99 40       	sbci	r25, 0x09	; 9
 6a4:	51 f4       	brne	.+20     	; 0x6ba <ProcessLineState+0x304>
			{
				c+=25;
 6a6:	80 91 3c 01 	lds	r24, 0x013C
 6aa:	87 5e       	subi	r24, 0xE7	; 231
 6ac:	80 93 3c 01 	sts	0x013C, r24
				count=0;
 6b0:	10 92 46 01 	sts	0x0146, r1
 6b4:	10 92 45 01 	sts	0x0145, r1
 6b8:	09 c0       	rjmp	.+18     	; 0x6cc <ProcessLineState+0x316>
			}
			else
			{
				count++;
 6ba:	80 91 45 01 	lds	r24, 0x0145
 6be:	90 91 46 01 	lds	r25, 0x0146
 6c2:	01 96       	adiw	r24, 0x01	; 1
 6c4:	90 93 46 01 	sts	0x0146, r25
 6c8:	80 93 45 01 	sts	0x0145, r24
			}
			

			right_speed = SPEED + c;
 6cc:	60 91 3c 01 	lds	r22, 0x013C
 6d0:	6c 59       	subi	r22, 0x9C	; 156
 6d2:	60 93 43 01 	sts	0x0143, r22
			
			steer(SPEED-70, right_speed);
 6d6:	8e e1       	ldi	r24, 0x1E	; 30
 6d8:	0e 94 7f 04 	call	0x8fe	; 0x8fe <steer>
			//steer(left_speed, right_speed);
			prevState = mask;
 6dc:	80 e8       	ldi	r24, 0x80	; 128
 6de:	80 93 41 01 	sts	0x0141, r24
			prevState = mask;
		}
		break;
 6e2:	08 95       	ret
		case 0b00000001:
		{
			//turn sharply to the right
			//alfa = 16
			if(prevState != mask)
 6e4:	80 91 41 01 	lds	r24, 0x0141
 6e8:	81 30       	cpi	r24, 0x01	; 1
 6ea:	19 f0       	breq	.+6      	; 0x6f2 <ProcessLineState+0x33c>
			{
				c=75;
 6ec:	8b e4       	ldi	r24, 0x4B	; 75
 6ee:	80 93 3c 01 	sts	0x013C, r24
			}
						
			if(count == 2500)
 6f2:	80 91 45 01 	lds	r24, 0x0145
 6f6:	90 91 46 01 	lds	r25, 0x0146
 6fa:	84 3c       	cpi	r24, 0xC4	; 196
 6fc:	99 40       	sbci	r25, 0x09	; 9
 6fe:	51 f4       	brne	.+20     	; 0x714 <ProcessLineState+0x35e>
			{
				c+=25;
 700:	80 91 3c 01 	lds	r24, 0x013C
 704:	87 5e       	subi	r24, 0xE7	; 231
 706:	80 93 3c 01 	sts	0x013C, r24
				count=0;
 70a:	10 92 46 01 	sts	0x0146, r1
 70e:	10 92 45 01 	sts	0x0145, r1
 712:	09 c0       	rjmp	.+18     	; 0x726 <ProcessLineState+0x370>
			}
			else
			{
				count++;
 714:	80 91 45 01 	lds	r24, 0x0145
 718:	90 91 46 01 	lds	r25, 0x0146
 71c:	01 96       	adiw	r24, 0x01	; 1
 71e:	90 93 46 01 	sts	0x0146, r25
 722:	80 93 45 01 	sts	0x0145, r24
			}
						

			left_speed = SPEED + c;
 726:	80 91 3c 01 	lds	r24, 0x013C
 72a:	8c 59       	subi	r24, 0x9C	; 156
 72c:	80 93 44 01 	sts	0x0144, r24
						
			steer(left_speed, SPEED-70);
 730:	6e e1       	ldi	r22, 0x1E	; 30
 732:	0e 94 7f 04 	call	0x8fe	; 0x8fe <steer>
			//steer(left_speed, right_speed);
			prevState = mask;
 736:	81 e0       	ldi	r24, 0x01	; 1
 738:	80 93 41 01 	sts	0x0141, r24
			
		}
		break;
 73c:	08 95       	ret
		case 0b11100000:
		{
			prevState = mask;
 73e:	80 ee       	ldi	r24, 0xE0	; 224
 740:	80 93 41 01 	sts	0x0141, r24
		}
		//turn left
		break;
 744:	08 95       	ret
		
		case 0b01110000:
		//turn left
		{
			prevState = mask;
 746:	80 e7       	ldi	r24, 0x70	; 112
 748:	80 93 41 01 	sts	0x0141, r24
		}
		break;
 74c:	08 95       	ret
		
		case 0b00111000:
		//turn left
		{
			prevState = mask;
 74e:	88 e3       	ldi	r24, 0x38	; 56
 750:	80 93 41 01 	sts	0x0141, r24
		}
		break;
 754:	08 95       	ret
		
		case 0b00011100:
		//turn right
		{
			prevState = mask;
 756:	8c e1       	ldi	r24, 0x1C	; 28
 758:	80 93 41 01 	sts	0x0141, r24
		}
		break;
 75c:	08 95       	ret
		
		case 0b00001110:
		//turn right
		{
			prevState = mask;
 75e:	8e e0       	ldi	r24, 0x0E	; 14
 760:	80 93 41 01 	sts	0x0141, r24
		}
		break;
 764:	08 95       	ret
		
		case 0b00000111:
		//turn right
		{
			angleFlag = ACUTE_ANGLE_RIGHT;
 766:	82 e0       	ldi	r24, 0x02	; 2
 768:	80 93 42 01 	sts	0x0142, r24
			prevState = mask;
 76c:	87 e0       	ldi	r24, 0x07	; 7
 76e:	80 93 41 01 	sts	0x0141, r24
		}
		break;
 772:	08 95       	ret
		
		case 0b10011000:
		//acute angle turn towards left
		{
		
			angleFlag = ACUTE_ANGLE_LEFT;
 774:	81 e0       	ldi	r24, 0x01	; 1
 776:	80 93 42 01 	sts	0x0142, r24
			prevState = mask;
 77a:	88 e9       	ldi	r24, 0x98	; 152
 77c:	80 93 41 01 	sts	0x0141, r24
		}
		break;
 780:	08 95       	ret
		
		case 0b00011001:
		//acute angle turn towards right
		{
			angleFlag = ACUTE_ANGLE_RIGHT;
 782:	82 e0       	ldi	r24, 0x02	; 2
 784:	80 93 42 01 	sts	0x0142, r24
			prevState = mask;
 788:	89 e1       	ldi	r24, 0x19	; 25
 78a:	80 93 41 01 	sts	0x0141, r24
		}
		break;
 78e:	08 95       	ret
		case 0b11110000:
		//90 degree turn towards left
		{
			left_speed = 0;
			steer(left_speed, (SPEED/2)-30);
 790:	64 e1       	ldi	r22, 0x14	; 20
 792:	80 e0       	ldi	r24, 0x00	; 0
 794:	0e 94 7f 04 	call	0x8fe	; 0x8fe <steer>
			prevState = mask;
 798:	80 ef       	ldi	r24, 0xF0	; 240
 79a:	80 93 41 01 	sts	0x0141, r24
		}
		break;
 79e:	08 95       	ret
		
		case 0b00001111:
		//90 degree turn towards right
		{
			right_speed = 0;
			steer((SPEED/2)-30, right_speed);
 7a0:	60 e0       	ldi	r22, 0x00	; 0
 7a2:	84 e1       	ldi	r24, 0x14	; 20
 7a4:	0e 94 7f 04 	call	0x8fe	; 0x8fe <steer>
			prevState = mask;
 7a8:	8f e0       	ldi	r24, 0x0F	; 15
 7aa:	80 93 41 01 	sts	0x0141, r24
		}
		break;
 7ae:	08 95       	ret
		
		case 0b11001100:
		// acute angle turn towards left
		{
			prevState = mask;
 7b0:	8c ec       	ldi	r24, 0xCC	; 204
 7b2:	80 93 41 01 	sts	0x0141, r24
		}
		break;
 7b6:	08 95       	ret
		
		case 0b11011000 :
		// acute angle turn towards left
		{
			angleFlag = ACUTE_ANGLE_LEFT;
 7b8:	81 e0       	ldi	r24, 0x01	; 1
 7ba:	80 93 42 01 	sts	0x0142, r24
			prevState = mask;
 7be:	88 ed       	ldi	r24, 0xD8	; 216
 7c0:	80 93 41 01 	sts	0x0141, r24
		}
		break;
 7c4:	08 95       	ret
		
		case 0b00110011:
		// acute angle turn towards right
		{
			angleFlag = ACUTE_ANGLE_RIGHT;
 7c6:	82 e0       	ldi	r24, 0x02	; 2
 7c8:	80 93 42 01 	sts	0x0142, r24
			prevState = mask;
 7cc:	83 e3       	ldi	r24, 0x33	; 51
 7ce:	80 93 41 01 	sts	0x0141, r24
		}
		break;
 7d2:	08 95       	ret
		
		case 0b00011011:
		// acute angle turn towards right
		{
			angleFlag = ACUTE_ANGLE_RIGHT;
 7d4:	82 e0       	ldi	r24, 0x02	; 2
 7d6:	80 93 42 01 	sts	0x0142, r24
			prevState = mask;
 7da:	8b e1       	ldi	r24, 0x1B	; 27
 7dc:	80 93 41 01 	sts	0x0141, r24
		}
		break;
 7e0:	08 95       	ret
		
		case 0b11111000:
		//90 degree turn towards left
		{
			left_speed = 0;
			steer(left_speed, (SPEED/2)-30);
 7e2:	64 e1       	ldi	r22, 0x14	; 20
 7e4:	80 e0       	ldi	r24, 0x00	; 0
 7e6:	0e 94 7f 04 	call	0x8fe	; 0x8fe <steer>
			prevState = mask;
 7ea:	88 ef       	ldi	r24, 0xF8	; 248
 7ec:	80 93 41 01 	sts	0x0141, r24
		}
		break;
 7f0:	08 95       	ret
		
		case 0b00011111:
		//90 degree turn towards right
		{
			right_speed = 0;
			steer((SPEED/2)-30, right_speed);
 7f2:	60 e0       	ldi	r22, 0x00	; 0
 7f4:	84 e1       	ldi	r24, 0x14	; 20
 7f6:	0e 94 7f 04 	call	0x8fe	; 0x8fe <steer>
			prevState = mask;
 7fa:	8f e1       	ldi	r24, 0x1F	; 31
 7fc:	80 93 41 01 	sts	0x0141, r24
		}
		break;
 800:	08 95       	ret
		
		case 0b11011100:
		//acute angle turn towards left
		{
			angleFlag = ACUTE_ANGLE_LEFT;
 802:	81 e0       	ldi	r24, 0x01	; 1
 804:	80 93 42 01 	sts	0x0142, r24
			prevState = mask;
 808:	8c ed       	ldi	r24, 0xDC	; 220
 80a:	80 93 41 01 	sts	0x0141, r24
		}
		break;
 80e:	08 95       	ret
		
		case 0b00111011:
		//acute angle turn towards right
		{
			angleFlag = ACUTE_ANGLE_RIGHT;
 810:	82 e0       	ldi	r24, 0x02	; 2
 812:	80 93 42 01 	sts	0x0142, r24
			prevState = mask;
 816:	8b e3       	ldi	r24, 0x3B	; 59
 818:	80 93 41 01 	sts	0x0141, r24
		}
		break;
 81c:	08 95       	ret
		
		case 0b11111100:
		//90 degree turn towards left
		{
			left_speed = 0;
			steer(left_speed, (SPEED/2)-30);
 81e:	64 e1       	ldi	r22, 0x14	; 20
 820:	80 e0       	ldi	r24, 0x00	; 0
 822:	0e 94 7f 04 	call	0x8fe	; 0x8fe <steer>
			prevState = mask;
 826:	8c ef       	ldi	r24, 0xFC	; 252
 828:	80 93 41 01 	sts	0x0141, r24
		}
		break;
 82c:	08 95       	ret
		
		case 0b00111111:
		//90 degree turn towards right
		{
			left_speed = 0;
			steer(left_speed, (SPEED/2)-30);
 82e:	64 e1       	ldi	r22, 0x14	; 20
 830:	80 e0       	ldi	r24, 0x00	; 0
 832:	0e 94 7f 04 	call	0x8fe	; 0x8fe <steer>
			prevState = mask;
 836:	8f e3       	ldi	r24, 0x3F	; 63
 838:	80 93 41 01 	sts	0x0141, r24
		}
		break;
 83c:	08 95       	ret
		
		case 0b11111110:
		//turn to left
		{
			right_speed = 0;
			steer(SPEED/2, right_speed);
 83e:	60 e0       	ldi	r22, 0x00	; 0
 840:	82 e3       	ldi	r24, 0x32	; 50
 842:	0e 94 7f 04 	call	0x8fe	; 0x8fe <steer>
			prevState = mask;
 846:	8e ef       	ldi	r24, 0xFE	; 254
 848:	80 93 41 01 	sts	0x0141, r24
		}
		break;
 84c:	08 95       	ret
		
		case 0b01111111:
		//turn to right
		{
			left_speed = 0;
			steer(left_speed, SPEED/2);
 84e:	62 e3       	ldi	r22, 0x32	; 50
 850:	80 e0       	ldi	r24, 0x00	; 0
 852:	0e 94 7f 04 	call	0x8fe	; 0x8fe <steer>
			prevState = mask;
 856:	8f e7       	ldi	r24, 0x7F	; 127
 858:	80 93 41 01 	sts	0x0141, r24
		}
		break;
 85c:	08 95       	ret
		
		case 0b11111111:
		//do nothing
		{
			forward(SPEED);
 85e:	84 e6       	ldi	r24, 0x64	; 100
 860:	0e 94 70 04 	call	0x8e0	; 0x8e0 <forward>
			prevState = mask;
 864:	8f ef       	ldi	r24, 0xFF	; 255
 866:	80 93 41 01 	sts	0x0141, r24
 86a:	08 95       	ret

0000086c <__vector_29>:
#include "/RoboTec/RoboTec/RoboTec/Driver/Headers/USART.h"
#include <avr/interrupt.h>


ISR (ADC_vect)
{
 86c:	1f 92       	push	r1
 86e:	0f 92       	push	r0
 870:	0f b6       	in	r0, 0x3f	; 63
 872:	0f 92       	push	r0
 874:	11 24       	eor	r1, r1
 876:	8f 93       	push	r24
 878:	9f 93       	push	r25
	adc_value = ADC;
 87a:	80 91 78 00 	lds	r24, 0x0078
 87e:	90 91 79 00 	lds	r25, 0x0079
 882:	90 93 48 01 	sts	0x0148, r25
 886:	80 93 47 01 	sts	0x0147, r24
}
 88a:	9f 91       	pop	r25
 88c:	8f 91       	pop	r24
 88e:	0f 90       	pop	r0
 890:	0f be       	out	0x3f, r0	; 63
 892:	0f 90       	pop	r0
 894:	1f 90       	pop	r1
 896:	18 95       	reti

00000898 <main>:
	
	
	//DIDR0 |= (1 << ADC0D) | (1 << ADC1D) | (1 << ADC4D) | (1 << ADC5D) | (1 << ADC6D);
	//DIDR2 |= (1 << ADC8D) | (1 << ADC9D) | (1 << ADC10D); 
	
	DDRB |=  (1<<DDB5) | (1<<DDB6) | (1 << DDB7) | (1 << DDB4);         //OCR1A and OCR1B...
 898:	84 b1       	in	r24, 0x04	; 4
 89a:	80 6f       	ori	r24, 0xF0	; 240
 89c:	84 b9       	out	0x04, r24	; 4
	DDRC |= (1 << DDC7);
 89e:	3f 9a       	sbi	0x07, 7	; 7
	
	DDRD &= ~(1 << DDD7);
 8a0:	57 98       	cbi	0x0a, 7	; 10
	
	DDRB &= ~(1 << DDB0) & ~(1 << DDB1) & ~(1 << DDB2) & ~(1 << DDB3);
 8a2:	84 b1       	in	r24, 0x04	; 4
 8a4:	80 7f       	andi	r24, 0xF0	; 240
 8a6:	84 b9       	out	0x04, r24	; 4
	DDRF &= ~(1 << DDF6) & ~(1 << DDF5) & ~(1 << DDF4);
 8a8:	80 b3       	in	r24, 0x10	; 16
 8aa:	8f 78       	andi	r24, 0x8F	; 143
 8ac:	80 bb       	out	0x10, r24	; 16
	
	
	PORTB &= ~(1 << PORTB0) & ~(1 << PORTB1) & ~(1 << PORTB2) & ~(1 << PORTB3);
 8ae:	85 b1       	in	r24, 0x05	; 5
 8b0:	80 7f       	andi	r24, 0xF0	; 240
 8b2:	85 b9       	out	0x05, r24	; 5
	PORTF &= ~(1 << PORTF4) & ~(1 << PORTF5) & ~(1 << PORTF6) ;
 8b4:	81 b3       	in	r24, 0x11	; 17
 8b6:	8f 78       	andi	r24, 0x8F	; 143
 8b8:	81 bb       	out	0x11, r24	; 17
	PORTD &= ~(1 << PORTD7);
 8ba:	5f 98       	cbi	0x0b, 7	; 11
	
	DDRD |= (1 << DDD0);
 8bc:	50 9a       	sbi	0x0a, 0	; 10
	
	uart_init();                           //USART init
 8be:	0e 94 c1 01 	call	0x382	; 0x382 <uart_init>
	//ADC_interuptInit();					   //ADC init
	pwm_init();                            //PWM init
 8c2:	0e 94 75 01 	call	0x2ea	; 0x2ea <pwm_init>
	
	//
	uart_print("Initialisation finished.");
 8c6:	83 e2       	ldi	r24, 0x23	; 35
 8c8:	91 e0       	ldi	r25, 0x01	; 1
 8ca:	0e 94 a0 01 	call	0x340	; 0x340 <uart_print>
	//sei();
	//forward(speed(30));
	
    while(1)
    {
		lineState = CheckSensor();
 8ce:	0e 94 d2 01 	call	0x3a4	; 0x3a4 <CheckSensor>
 8d2:	80 93 49 01 	sts	0x0149, r24
	//	PORTD ^= 0x01; //DD0
		//_delay_ms(300);
		//uart_print_bits(lineState);
		ProcessLineState(lineState);
 8d6:	80 91 49 01 	lds	r24, 0x0149
 8da:	0e 94 db 01 	call	0x3b6	; 0x3b6 <ProcessLineState>
 8de:	f7 cf       	rjmp	.-18     	; 0x8ce <main+0x36>

000008e0 <forward>:
void forward(uint8_t value)
{
	uint8_t tempSpeed = 0;
	int16_t count = 0;
	
	PORTC &= ~(1 << PORTC7);
 8e0:	47 98       	cbi	0x08, 7	; 8
	PORTB &= ~(1 << PORTB7);
 8e2:	2f 98       	cbi	0x05, 7	; 5
	PORTF |= (1 << PORTF7);
 8e4:	8f 9a       	sbi	0x11, 7	; 17
	PORTB |= (1 << PORTB4);
 8e6:	2c 9a       	sbi	0x05, 4	; 5
	OCR1A = value;
 8e8:	90 e0       	ldi	r25, 0x00	; 0
 8ea:	90 93 89 00 	sts	0x0089, r25
 8ee:	80 93 88 00 	sts	0x0088, r24
	OCR1B = value + 5;	
 8f2:	05 96       	adiw	r24, 0x05	; 5
 8f4:	90 93 8b 00 	sts	0x008B, r25
 8f8:	80 93 8a 00 	sts	0x008A, r24
 8fc:	08 95       	ret

000008fe <steer>:
}
void steer(uint8_t value_left, uint8_t value_right)
{
	OCR1A = value_left;
 8fe:	90 e0       	ldi	r25, 0x00	; 0
 900:	90 93 89 00 	sts	0x0089, r25
 904:	80 93 88 00 	sts	0x0088, r24
	OCR1B = value_right;
 908:	70 e0       	ldi	r23, 0x00	; 0
 90a:	70 93 8b 00 	sts	0x008B, r23
 90e:	60 93 8a 00 	sts	0x008A, r22
	
	PORTC &= ~(1 << PORTC7);
 912:	47 98       	cbi	0x08, 7	; 8
	PORTB &= ~(1 << PORTB7);
 914:	2f 98       	cbi	0x05, 7	; 5
	PORTF |= (1 << PORTF7);
 916:	8f 9a       	sbi	0x11, 7	; 17
	PORTB |= (1 << PORTB4);
 918:	2c 9a       	sbi	0x05, 4	; 5
 91a:	08 95       	ret

0000091c <__tablejump2__>:
 91c:	ee 0f       	add	r30, r30
 91e:	ff 1f       	adc	r31, r31

00000920 <__tablejump__>:
 920:	05 90       	lpm	r0, Z+
 922:	f4 91       	lpm	r31, Z
 924:	e0 2d       	mov	r30, r0
 926:	09 94       	ijmp

00000928 <_exit>:
 928:	f8 94       	cli

0000092a <__stop_program>:
 92a:	ff cf       	rjmp	.-2      	; 0x92a <__stop_program>
